; ModuleID = '24/866.c'
source_filename = "24/866.c"
target datalayout = "e-m:e-p270:32:32-p271:32:32-p272:64:64-i64:64-f80:128-n8:16:32:64-S128"
target triple = "x86_64-pc-linux-gnu"

@.str = private unnamed_addr constant [3 x i8] c"%s\00", align 1

; Function Attrs: noinline nounwind uwtable
define dso_local i32 @main() #0 {
  %1 = alloca i32, align 4
  %2 = alloca i32, align 4
  %3 = alloca i32, align 4
  %4 = alloca i32, align 4
  %5 = alloca i32, align 4
  %6 = alloca i32, align 4
  %7 = alloca [51 x [50 x i8]], align 16
  %8 = alloca [50 x i8], align 16
  %9 = alloca [50 x i8], align 16
  store i32 0, i32* %1, align 4
  store i32 1, i32* %5, align 4
  store i32 25, i32* %6, align 4
  store i32 0, i32* %2, align 4
  br label %10

10:                                               ; preds = %81, %0
  %11 = load i32, i32* %2, align 4
  %12 = icmp slt i32 %11, 20
  br i1 %12, label %13, label %84

13:                                               ; preds = %10
  %14 = load i32, i32* %2, align 4
  %15 = sext i32 %14 to i64
  %16 = getelementptr inbounds [51 x [50 x i8]], [51 x [50 x i8]]* %7, i64 0, i64 %15
  %17 = call i32 (i8*, ...) @__isoc99_scanf(i8* getelementptr inbounds ([3 x i8], [3 x i8]* @.str, i64 0, i64 0), [50 x i8]* %16)
  %18 = load i32, i32* %2, align 4
  %19 = sext i32 %18 to i64
  %20 = getelementptr inbounds [51 x [50 x i8]], [51 x [50 x i8]]* %7, i64 0, i64 %19
  %21 = getelementptr inbounds [50 x i8], [50 x i8]* %20, i64 0, i64 0
  %22 = load i8, i8* %21, align 2
  %23 = sext i8 %22 to i32
  %24 = icmp sge i32 %23, 97
  br i1 %24, label %25, label %33

25:                                               ; preds = %13
  %26 = load i32, i32* %2, align 4
  %27 = sext i32 %26 to i64
  %28 = getelementptr inbounds [51 x [50 x i8]], [51 x [50 x i8]]* %7, i64 0, i64 %27
  %29 = getelementptr inbounds [50 x i8], [50 x i8]* %28, i64 0, i64 0
  %30 = load i8, i8* %29, align 2
  %31 = sext i8 %30 to i32
  %32 = icmp sle i32 %31, 122
  br i1 %32, label %49, label %33

33:                                               ; preds = %25, %13
  %34 = load i32, i32* %2, align 4
  %35 = sext i32 %34 to i64
  %36 = getelementptr inbounds [51 x [50 x i8]], [51 x [50 x i8]]* %7, i64 0, i64 %35
  %37 = getelementptr inbounds [50 x i8], [50 x i8]* %36, i64 0, i64 0
  %38 = load i8, i8* %37, align 2
  %39 = sext i8 %38 to i32
  %40 = icmp sge i32 %39, 65
  br i1 %40, label %41, label %80

41:                                               ; preds = %33
  %42 = load i32, i32* %2, align 4
  %43 = sext i32 %42 to i64
  %44 = getelementptr inbounds [51 x [50 x i8]], [51 x [50 x i8]]* %7, i64 0, i64 %43
  %45 = getelementptr inbounds [50 x i8], [50 x i8]* %44, i64 0, i64 0
  %46 = load i8, i8* %45, align 2
  %47 = sext i8 %46 to i32
  %48 = icmp sle i32 %47, 90
  br i1 %48, label %49, label %80

49:                                               ; preds = %41, %25
  %50 = load i32, i32* %2, align 4
  %51 = sext i32 %50 to i64
  %52 = getelementptr inbounds [51 x [50 x i8]], [51 x [50 x i8]]* %7, i64 0, i64 %51
  %53 = getelementptr inbounds [50 x i8], [50 x i8]* %52, i64 0, i64 0
  %54 = call i64 @strlen(i8* %53) #4
  %55 = trunc i64 %54 to i32
  store i32 %55, i32* %4, align 4
  %56 = load i32, i32* %4, align 4
  %57 = load i32, i32* %5, align 4
  %58 = icmp sgt i32 %56, %57
  br i1 %58, label %59, label %67

59:                                               ; preds = %49
  %60 = getelementptr inbounds [50 x i8], [50 x i8]* %8, i64 0, i64 0
  %61 = load i32, i32* %2, align 4
  %62 = sext i32 %61 to i64
  %63 = getelementptr inbounds [51 x [50 x i8]], [51 x [50 x i8]]* %7, i64 0, i64 %62
  %64 = getelementptr inbounds [50 x i8], [50 x i8]* %63, i64 0, i64 0
  %65 = call i8* @strcpy(i8* %60, i8* %64) #5
  %66 = load i32, i32* %4, align 4
  store i32 %66, i32* %5, align 4
  br label %67

67:                                               ; preds = %59, %49
  %68 = load i32, i32* %4, align 4
  %69 = load i32, i32* %6, align 4
  %70 = icmp slt i32 %68, %69
  br i1 %70, label %71, label %79

71:                                               ; preds = %67
  %72 = getelementptr inbounds [50 x i8], [50 x i8]* %9, i64 0, i64 0
  %73 = load i32, i32* %2, align 4
  %74 = sext i32 %73 to i64
  %75 = getelementptr inbounds [51 x [50 x i8]], [51 x [50 x i8]]* %7, i64 0, i64 %74
  %76 = getelementptr inbounds [50 x i8], [50 x i8]* %75, i64 0, i64 0
  %77 = call i8* @strcpy(i8* %72, i8* %76) #5
  %78 = load i32, i32* %4, align 4
  store i32 %78, i32* %6, align 4
  br label %79

79:                                               ; preds = %71, %67
  br label %80

80:                                               ; preds = %79, %41, %33
  br label %81

81:                                               ; preds = %80
  %82 = load i32, i32* %2, align 4
  %83 = add nsw i32 %82, 1
  store i32 %83, i32* %2, align 4
  br label %10

84:                                               ; preds = %10
  %85 = getelementptr inbounds [50 x i8], [50 x i8]* %8, i64 0, i64 0
  %86 = call i32 @puts(i8* %85)
  %87 = getelementptr inbounds [50 x i8], [50 x i8]* %9, i64 0, i64 0
  %88 = call i32 @puts(i8* %87)
  ret i32 0
}

declare dso_local i32 @__isoc99_scanf(i8*, ...) #1

; Function Attrs: nounwind readonly
declare dso_local i64 @strlen(i8*) #2

; Function Attrs: nounwind
declare dso_local i8* @strcpy(i8*, i8*) #3

declare dso_local i32 @puts(i8*) #1


!llvm.module.flags = !{!0}
!llvm.ident = !{!1}

!0 = !{i32 1, !"wchar_size", i32 4}
!1 = !{!"clang version 10.0.0-4ubuntu1 "}
